target datalayout = "e-m:e-p270:32:32-p271:32:32-p272:64:64-i64:64-i128:128-f80:128-n8:16:32:64-S128"
target triple = "x86_64-pc-linux-gnu"

%"class.std::__cxx11::basic_string" = type { %"struct.std::__cxx11::basic_string<char>::_Alloc_hider", i64, %union.anon }
%"struct.std::__cxx11::basic_string<char>::_Alloc_hider" = type { ptr }
%union.anon = type { i64, [8 x i8] }
%"class.llvm::function_ref" = type { ptr, i64 }
%"class.llvm::function_ref.5" = type { ptr, i64 }
%"class.std::allocator.2" = type { i8 }
%"struct.llvm::DefaultDOTGraphTraits" = type { i8 }

@.str.3 = private unnamed_addr constant [16 x i8] c"Not implemented\00", align 1
@.str.82 = private unnamed_addr constant [50 x i8] c"basic_string: construction from null is not valid\00", align 1

; Function Attrs: mustprogress nounwind uwtable
define linkonce_odr hidden noundef i64 @_ZNSt11char_traitsIcE6lengthEPKc(ptr noundef %0) #1 comdat align 2 {
  %2 = alloca ptr, align 8
  store ptr %0, ptr %2, align 8
  %3 = load ptr, ptr %2, align 8
  %4 = call i64 @strlen(ptr noundef %3) #2
  ret i64 %4
}

; Function Attrs: mustprogress nounwind uwtable
define linkonce_odr hidden void @_ZNSt7__cxx1112basic_stringIcSt11char_traitsIcESaIcEEC2IS3_EEPKcRKS3_(ptr noundef nonnull align 8 dereferenceable(32) %0, ptr noundef %1, ptr noundef nonnull align 1 dereferenceable(1) %2) unnamed_addr #1 comdat align 2 {
  %4 = alloca ptr, align 8
  %5 = alloca ptr, align 8
  %6 = alloca ptr, align 8
  %7 = alloca ptr, align 8
  store ptr %0, ptr %4, align 8
  store ptr %1, ptr %5, align 8
  store ptr %2, ptr %6, align 8
  %8 = load ptr, ptr %4, align 8
  %9 = getelementptr inbounds nuw %"class.std::__cxx11::basic_string", ptr %8, i32 0, i32 0
  %10 = call noundef ptr @_ZNSt7__cxx1112basic_stringIcSt11char_traitsIcESaIcEE13_M_local_dataEv(ptr noundef nonnull align 8 dereferenceable(32) %8)
  %11 = load ptr, ptr %6, align 8
  call void @_ZNSt7__cxx1112basic_stringIcSt11char_traitsIcESaIcEE12_Alloc_hiderC1EPcRKS3_(ptr noundef nonnull align 8 dereferenceable(8) %9, ptr noundef %10, ptr noundef nonnull align 1 dereferenceable(1) %11)
  %12 = load ptr, ptr %5, align 8
  %13 = icmp eq ptr %12, null
  br i1 %13, label %14, label %15

14:                                               ; preds = %3
  call void @_ZSt19__throw_logic_errorPKc(ptr noundef @.str.82) #14
  unreachable

15:                                               ; preds = %3
  %16 = load ptr, ptr %5, align 8
  %17 = load ptr, ptr %5, align 8
  %18 = call noundef i64 @_ZNSt11char_traitsIcE6lengthEPKc(ptr noundef %17)
  %19 = getelementptr inbounds i8, ptr %16, i64 %18
  store ptr %19, ptr %7, align 8
  %20 = load ptr, ptr %5, align 8
  %21 = load ptr, ptr %7, align 8
  call void @_ZNSt7__cxx1112basic_stringIcSt11char_traitsIcESaIcEE12_M_constructIPKcEEvT_S8_St20forward_iterator_tag(ptr noundef nonnull align 8 dereferenceable(32) %8, ptr noundef %20, ptr noundef %21)
  ret void
}

; Function Attrs: mustprogress nounwind uwtable
define linkonce_odr hidden void @_ZN4llvm14DOTGraphTraitsIPNS_11DOTFuncInfoEE20getCompleteNodeLabelEPKNS_10BasicBlockES2_NS_12function_refIFvRNS_18raw_string_ostreamERS5_EEENS7_IFvRNSt7__cxx1112basic_stringIcSt11char_traitsIcESaIcEEERjjEEE(ptr dead_on_unwind noalias writable sret(%"class.std::__cxx11::basic_string") align 8 %0, ptr noundef %1, ptr noundef %2, ptr %3, i64 %4, ptr noundef byval(%"class.llvm::function_ref.5") align 8 %5) #1 comdat align 2 {
  %7 = alloca ptr, align 8
  %8 = alloca %"class.llvm::function_ref", align 8
  %9 = alloca ptr, align 8
  %10 = alloca ptr, align 8
  %11 = alloca %"class.llvm::function_ref", align 8
  %12 = alloca %"class.llvm::function_ref.5", align 8
  store ptr %0, ptr %7, align 8
  %13 = getelementptr inbounds nuw { ptr, i64 }, ptr %8, i32 0, i32 0
  store ptr %3, ptr %13, align 8
  %14 = getelementptr inbounds nuw { ptr, i64 }, ptr %8, i32 0, i32 1
  store i64 %4, ptr %14, align 8
  store ptr %1, ptr %9, align 8
  store ptr %2, ptr %10, align 8
  %15 = load ptr, ptr %9, align 8
  call void @llvm.memcpy.p0.p0.i64(ptr align 8 %11, ptr align 8 %8, i64 16, i1 false)
  call void @llvm.memcpy.p0.p0.i64(ptr align 8 %12, ptr align 8 %5, i64 16, i1 false)
  %16 = getelementptr inbounds nuw { ptr, i64 }, ptr %11, i32 0, i32 0
  %17 = load ptr, ptr %16, align 8
  %18 = getelementptr inbounds nuw { ptr, i64 }, ptr %11, i32 0, i32 1
  %19 = load i64, ptr %18, align 8
  %20 = getelementptr inbounds nuw { ptr, i64 }, ptr %12, i32 0, i32 0
  %21 = load ptr, ptr %20, align 8
  %22 = getelementptr inbounds nuw { ptr, i64 }, ptr %12, i32 0, i32 1
  %23 = load i64, ptr %22, align 8
  call void @_ZN4llvm23CompleteNodeLabelStringINS_10BasicBlockEEENSt7__cxx1112basic_stringIcSt11char_traitsIcESaIcEEEPKT_NS_12function_refIFvRNS_18raw_string_ostreamERS9_EEENSB_IFvRS7_RjjEEE(ptr dead_on_unwind writable sret(%"class.std::__cxx11::basic_string") align 8 %0, ptr noundef %15, ptr %17, i64 %19, ptr %21, i64 %23)
  ret void
}

; Function Attrs: mustprogress nounwind uwtable
define linkonce_odr hidden void @_ZN4llvm12function_refIFvRNSt7__cxx1112basic_stringIcSt11char_traitsIcESaIcEEERjjEEC2IRS9_EEOT_PNSt9enable_ifIXntsr3std7is_sameINS_12remove_cvrefISD_E4typeESA_EE5valueEvE4typeEPNSF_IXooL_ZNSt17integral_constantIbLb1EE5valueEEsr3std14is_convertibleIDTclclsr3stdE7declvalISD_EEclL_ZSt7declvalIS7_EDTcl9__declvalISD_ELi0EEEvEEclL_ZSO_IS8_ESP_vEEclL_ZSO_IjESP_vEEEEvEE5valueEvE4typeE(ptr noundef nonnull align 8 dereferenceable(16) %0, ptr noundef nonnull %1, ptr noundef %2, ptr noundef %3) unnamed_addr #1 comdat align 2 {
  %5 = alloca ptr, align 8
  %6 = alloca ptr, align 8
  %7 = alloca ptr, align 8
  %8 = alloca ptr, align 8
  store ptr %0, ptr %5, align 8
  store ptr %1, ptr %6, align 8
  store ptr %2, ptr %7, align 8
  store ptr %3, ptr %8, align 8
  %9 = load ptr, ptr %5, align 8
  %10 = getelementptr inbounds nuw %"class.llvm::function_ref.5", ptr %9, i32 0, i32 0
  store ptr @_ZN4llvm12function_refIFvRNSt7__cxx1112basic_stringIcSt11char_traitsIcESaIcEEERjjEE11callback_fnIS9_EEvlS7_S8_j, ptr %10, align 8
  %11 = getelementptr inbounds nuw %"class.llvm::function_ref.5", ptr %9, i32 0, i32 1
  %12 = load ptr, ptr %6, align 8
  %13 = ptrtoint ptr %12 to i64
  store i64 %13, ptr %11, align 8
  ret void
}

; Function Attrs: mustprogress nounwind uwtable
define linkonce_odr hidden void @_ZN4llvm12function_refIFvRNS_18raw_string_ostreamERKNS_10BasicBlockEEEC2IRS6_EEOT_PNSt9enable_ifIXntsr3std7is_sameINS_12remove_cvrefISA_E4typeES7_EE5valueEvE4typeEPNSC_IXooL_ZNSt17integral_constantIbLb1EE5valueEEsr3std14is_convertibleIDTclclsr3stdE7declvalISA_EEclL_ZSt7declvalIS2_EDTcl9__declvalISA_ELi0EEEvEEclL_ZSL_IS5_ESM_vEEEEvEE5valueEvE4typeE(ptr noundef nonnull align 8 dereferenceable(16) %0, ptr noundef nonnull %1, ptr noundef %2, ptr noundef %3) unnamed_addr #1 comdat align 2 {
  %5 = alloca ptr, align 8
  %6 = alloca ptr, align 8
  %7 = alloca ptr, align 8
  %8 = alloca ptr, align 8
  store ptr %0, ptr %5, align 8
  store ptr %1, ptr %6, align 8
  store ptr %2, ptr %7, align 8
  store ptr %3, ptr %8, align 8
  %9 = load ptr, ptr %5, align 8
  %10 = getelementptr inbounds nuw %"class.llvm::function_ref", ptr %9, i32 0, i32 0
  store ptr @_ZN4llvm12function_refIFvRNS_18raw_string_ostreamERKNS_10BasicBlockEEE11callback_fnIS6_EEvlS2_S5_, ptr %10, align 8
  %11 = getelementptr inbounds nuw %"class.llvm::function_ref", ptr %9, i32 0, i32 1
  %12 = load ptr, ptr %6, align 8
  %13 = ptrtoint ptr %12 to i64
  store i64 %13, ptr %11, align 8
  ret void
}

; Function Attrs: mustprogress nounwind uwtable
define linkonce_odr hidden void @_ZN4llvm14DOTGraphTraitsIPNS_11DOTFuncInfoEE18getSimpleNodeLabelB5cxx11EPKNS_10BasicBlockES2_(ptr dead_on_unwind noalias writable sret(%"class.std::__cxx11::basic_string") align 8 %0, ptr noundef %1, ptr noundef %2) #1 comdat align 2 {
  %4 = alloca ptr, align 8
  %5 = alloca ptr, align 8
  %6 = alloca ptr, align 8
  store ptr %0, ptr %4, align 8
  store ptr %1, ptr %5, align 8
  store ptr %2, ptr %6, align 8
  %7 = load ptr, ptr %5, align 8
  call void @_ZN4llvm21SimpleNodeLabelStringINS_10BasicBlockEEENSt7__cxx1112basic_stringIcSt11char_traitsIcESaIcEEEPKT_(ptr dead_on_unwind writable sret(%"class.std::__cxx11::basic_string") align 8 %0, ptr noundef %7)
  ret void
}

; Function Attrs: mustprogress nounwind uwtable
define linkonce_odr hidden noundef zeroext i1 @_ZN4llvm21DefaultDOTGraphTraits8isSimpleEv(ptr noundef nonnull align 1 dereferenceable(1) %0) #1 comdat align 2 {
  %2 = alloca ptr, align 8
  store ptr %0, ptr %2, align 8
  %3 = load ptr, ptr %2, align 8
  %4 = getelementptr inbounds nuw %"struct.llvm::DefaultDOTGraphTraits", ptr %3, i32 0, i32 0
  %5 = load i8, ptr %4, align 1
  %6 = trunc i8 %5 to i1
  ret i1 %6
}

; Function Attrs: mustprogress nounwind uwtable
define linkonce_odr hidden noundef ptr @_ZNK4llvm14RegionNodeBaseINS_12RegionTraitsINS_8FunctionEEEE9getNodeAsINS_10BasicBlockEEEPT_v(ptr noundef nonnull align 8 dereferenceable(16) %0) #1 comdat align 2 {
  %2 = alloca ptr, align 8
  store ptr %0, ptr %2, align 8
  %3 = load ptr, ptr %2, align 8
  %4 = call noundef ptr @_ZNK4llvm14RegionNodeBaseINS_12RegionTraitsINS_8FunctionEEEE8getEntryEv(ptr noundef nonnull align 8 dereferenceable(16) %3)
  ret ptr %4
}

; Function Attrs: mustprogress nounwind uwtable
define dso_local void @_ZN4llvm14DOTGraphTraitsIPNS_10RegionNodeEE12getNodeLabelB5cxx11ES2_S2_(ptr dead_on_unwind noalias writable sret(%"class.std::__cxx11::basic_string") align 8 %0, ptr noundef nonnull align 1 dereferenceable(1) %1, ptr noundef %2, ptr noundef %3) #1 align 2 {
  %5 = alloca ptr, align 8
  %6 = alloca ptr, align 8
  %7 = alloca ptr, align 8
  %8 = alloca ptr, align 8
  %9 = alloca ptr, align 8
  %10 = alloca %"class.llvm::function_ref", align 8
  %11 = alloca %"class.llvm::function_ref.5", align 8
  %12 = alloca %"class.std::allocator.2", align 1
  store ptr %0, ptr %5, align 8
  store ptr %1, ptr %6, align 8
  store ptr %2, ptr %7, align 8
  store ptr %3, ptr %8, align 8
  %13 = load ptr, ptr %6, align 8
  %14 = load ptr, ptr %7, align 8
  %15 = call noundef zeroext i1 @_ZNK4llvm14RegionNodeBaseINS_12RegionTraitsINS_8FunctionEEEE11isSubRegionEv(ptr noundef nonnull align 8 dereferenceable(16) %14)
  br i1 %15, label %28, label %16

16:                                               ; preds = %4
  %17 = load ptr, ptr %7, align 8
  %18 = call noundef ptr @_ZNK4llvm14RegionNodeBaseINS_12RegionTraitsINS_8FunctionEEEE9getNodeAsINS_10BasicBlockEEEPT_v(ptr noundef nonnull align 8 dereferenceable(16) %17)
  store ptr %18, ptr %9, align 8
  %19 = call noundef zeroext i1 @_ZN4llvm21DefaultDOTGraphTraits8isSimpleEv(ptr noundef nonnull align 1 dereferenceable(1) %13)
  br i1 %19, label %20, label %22

20:                                               ; preds = %16
  %21 = load ptr, ptr %9, align 8
  call void @_ZN4llvm14DOTGraphTraitsIPNS_11DOTFuncInfoEE18getSimpleNodeLabelB5cxx11EPKNS_10BasicBlockES2_(ptr dead_on_unwind writable sret(%"class.std::__cxx11::basic_string") align 8 %0, ptr noundef %21, ptr noundef null)
  br label %29

22:                                               ; preds = %16
  %23 = load ptr, ptr %9, align 8
  call void @_ZN4llvm12function_refIFvRNS_18raw_string_ostreamERKNS_10BasicBlockEEEC2IRS6_EEOT_PNSt9enable_ifIXntsr3std7is_sameINS_12remove_cvrefISA_E4typeES7_EE5valueEvE4typeEPNSC_IXooL_ZNSt17integral_constantIbLb1EE5valueEEsr3std14is_convertibleIDTclclsr3stdE7declvalISA_EEclL_ZSt7declvalIS2_EDTcl9__declvalISA_ELi0EEEvEEclL_ZSL_IS5_ESM_vEEEEvEE5valueEvE4typeE(ptr noundef nonnull align 8 dereferenceable(16) %10, ptr noundef nonnull @_ZN4llvm14DOTGraphTraitsIPNS_11DOTFuncInfoEE15printBasicBlockERNS_18raw_string_ostreamERKNS_10BasicBlockE, ptr noundef null, ptr noundef null)
  call void @_ZN4llvm12function_refIFvRNSt7__cxx1112basic_stringIcSt11char_traitsIcESaIcEEERjjEEC2IRS9_EEOT_PNSt9enable_ifIXntsr3std7is_sameINS_12remove_cvrefISD_E4typeESA_EE5valueEvE4typeEPNSF_IXooL_ZNSt17integral_constantIbLb1EE5valueEEsr3std14is_convertibleIDTclclsr3stdE7declvalISD_EEclL_ZSt7declvalIS7_EDTcl9__declvalISD_ELi0EEEvEEclL_ZSO_IS8_ESP_vEEclL_ZSO_IjESP_vEEEEvEE5valueEvE4typeE(ptr noundef nonnull align 8 dereferenceable(16) %11, ptr noundef nonnull @_ZN4llvm14DOTGraphTraitsIPNS_11DOTFuncInfoEE12eraseCommentERNSt7__cxx1112basic_stringIcSt11char_traitsIcESaIcEEERjj, ptr noundef null, ptr noundef null)
  %24 = getelementptr inbounds nuw { ptr, i64 }, ptr %10, i32 0, i32 0
  %25 = load ptr, ptr %24, align 8
  %26 = getelementptr inbounds nuw { ptr, i64 }, ptr %10, i32 0, i32 1
  %27 = load i64, ptr %26, align 8
  call void @_ZN4llvm14DOTGraphTraitsIPNS_11DOTFuncInfoEE20getCompleteNodeLabelEPKNS_10BasicBlockES2_NS_12function_refIFvRNS_18raw_string_ostreamERS5_EEENS7_IFvRNSt7__cxx1112basic_stringIcSt11char_traitsIcESaIcEEERjjEEE(ptr dead_on_unwind writable sret(%"class.std::__cxx11::basic_string") align 8 %0, ptr noundef %23, ptr noundef null, ptr %25, i64 %27, ptr noundef byval(%"class.llvm::function_ref.5") align 8 %11)
  br label %29

28:                                               ; preds = %4
  call void @_ZNSaIcEC1Ev(ptr noundef nonnull align 1 dereferenceable(1) %12) #2
  call void @_ZNSt7__cxx1112basic_stringIcSt11char_traitsIcESaIcEEC2IS3_EEPKcRKS3_(ptr noundef nonnull align 8 dereferenceable(32) %0, ptr noundef @.str.3, ptr noundef nonnull align 1 dereferenceable(1) %12)
  call void @_ZNSaIcED1Ev(ptr noundef nonnull align 1 dereferenceable(1) %12) #2
  br label %29

29:                                               ; preds = %28, %22, %20
  ret void
}