; Function Attrs: mustprogress nounwind uwtable
define dso_local void @_ZN4llvm14DOTGraphTraitsIPNS_10RegionNodeEE12getNodeLabelB5cxx11ES2_S2_(ptr dead_on_unwind noalias writable sret(%"class.std::__cxx11::basic_string") align 8 %0, ptr nocapture noundef nonnull readonly align 1 dereferenceable(1) %1, ptr noundef nonnull %2, ptr nocapture readnone %3) local_unnamed_addr #0 align 2 {
  %5 = alloca %"class.std::allocator.2", align 1
  %6 = tail call noundef zeroext i1 @_ZNK4llvm14RegionNodeBaseINS_12RegionTraitsINS_8FunctionEEEE11isSubRegionEv(ptr noundef nonnull align 8 dereferenceable(16) %2) #21
  br i1 %6, label %13, label %7

7:                                                ; preds = %4
  %8 = tail call noundef ptr @_ZNK4llvm14RegionNodeBaseINS_12RegionTraitsINS_8FunctionEEEE8getEntryEv(ptr noundef nonnull align 8 dereferenceable(16) %2) #21
  %9 = load i8, ptr %1, align 1
  %10 = trunc i8 %9 to i1
  br i1 %10, label %11, label %12

11:                                               ; preds = %7
  tail call void @_ZN4llvm21SimpleNodeLabelStringINS_10BasicBlockEEENSt7__cxx1112basic_stringIcSt11char_traitsIcESaIcEEEPKT_(ptr dead_on_unwind writable sret(%"class.std::__cxx11::basic_string") align 8 %0, ptr noundef %8)
  br label %15

12:                                               ; preds = %7
  tail call void @_ZN4llvm23CompleteNodeLabelStringINS_10BasicBlockEEENSt7__cxx1112basic_stringIcSt11char_traitsIcESaIcEEEPKT_NS_12function_refIFvRNS_18raw_string_ostreamERS9_EEENSB_IFvRS7_RjjEEE(ptr dead_on_unwind writable sret(%"class.std::__cxx11::basic_string") align 8 %0, ptr noundef %8, ptr nonnull @_ZN4llvm12function_refIFvRNS_18raw_string_ostreamERKNS_10BasicBlockEEE11callback_fnIS6_EEvlS2_S5_, i64 ptrtoint (ptr @_ZN4llvm14DOTGraphTraitsIPNS_11DOTFuncInfoEE15printBasicBlockERNS_18raw_string_ostreamERKNS_10BasicBlockE to i64), ptr nonnull @_ZN4llvm12function_refIFvRNSt7__cxx1112basic_stringIcSt11char_traitsIcESaIcEEERjjEE11callback_fnIS9_EEvlS7_S8_j, i64 ptrtoint (ptr @_ZN4llvm14DOTGraphTraitsIPNS_11DOTFuncInfoEE12eraseCommentERNSt7__cxx1112basic_stringIcSt11char_traitsIcESaIcEEERjj to i64))
  br label %15

13:                                               ; preds = %4
  call void @_ZNSaIcEC1Ev(ptr noundef nonnull align 1 dereferenceable(1) %5) #21
  %14 = call noundef ptr @_ZNSt7__cxx1112basic_stringIcSt11char_traitsIcESaIcEE13_M_local_dataEv(ptr noundef nonnull align 8 dereferenceable(32) %0) #21
  call void @_ZNSt7__cxx1112basic_stringIcSt11char_traitsIcESaIcEE12_Alloc_hiderC1EPcRKS3_(ptr noundef nonnull align 8 dereferenceable(8) %0, ptr noundef %14, ptr noundef nonnull align 1 dereferenceable(1) %5) #21
  call void @_ZNSt7__cxx1112basic_stringIcSt11char_traitsIcESaIcEE12_M_constructIPKcEEvT_S8_St20forward_iterator_tag(ptr noundef nonnull align 8 dereferenceable(32) %0, ptr noundef nonnull @.str.3, ptr noundef nonnull getelementptr inbounds (i8, ptr @.str.3, i64 15))
  call void @_ZNSaIcED1Ev(ptr noundef nonnull align 1 dereferenceable(1) %5) #21
  br label %15

15:                                               ; preds = %13, %12, %11
  ret void
}